; Function Attrs: mustprogress uwtable
define void @_ZN32pxrInternal_v0_24__pxrReserved__6TfTypeC2Ev(ptr noundef nonnull writeonly align 8 captures(none) dereferenceable(8) initializes((0, 8)) %0) unnamed_addr #3 align 2 {
  %2 = load atomic i64, ptr @_ZN32pxrInternal_v0_24__pxrReserved__11TfSingletonINS_15Tf_TypeRegistryEE9_instanceE seq_cst, align 8
  %.0.i.i.i = inttoptr i64 %2 to ptr
  %.not.i.i = icmp eq i64 %2, 0
  br i1 %.not.i.i, label %3, label %_ZN32pxrInternal_v0_24__pxrReserved__15Tf_TypeRegistry11GetInstanceEv.exit

3:                                                ; preds = %1
  %4 = tail call noundef ptr @_ZN32pxrInternal_v0_24__pxrReserved__11TfSingletonINS_15Tf_TypeRegistryEE15_CreateInstanceERSt6atomicIPS1_E(ptr noundef nonnull align 8 dereferenceable(8) @_ZN32pxrInternal_v0_24__pxrReserved__11TfSingletonINS_15Tf_TypeRegistryEE9_instanceE)
  br label %_ZN32pxrInternal_v0_24__pxrReserved__15Tf_TypeRegistry11GetInstanceEv.exit

_ZN32pxrInternal_v0_24__pxrReserved__15Tf_TypeRegistry11GetInstanceEv.exit: ; preds = %1, %3
  %.0.i.i = phi ptr [ %.0.i.i.i, %1 ], [ %4, %3 ]
  %5 = getelementptr inbounds nuw i8, ptr %.0.i.i, i64 248
  %6 = load ptr, ptr %5, align 8
  store ptr %6, ptr %0, align 8
  ret void
}